; Function Attrs: uwtable
define void @_ZThn8_NK6opencc8TextDict15SerializeToFileEP8_IO_FILE(ptr nocapture noundef readonly %0, ptr nocapture noundef %1) unnamed_addr #10 align 2 {
  %3 = alloca %"class.std::__cxx11::basic_string", align 8
  call void @llvm.lifetime.start.p0(i64 32, ptr nonnull %3)
  %4 = getelementptr inbounds i8, ptr %0, i64 16
  %5 = load ptr, ptr %4, align 8
  %6 = load ptr, ptr %5, align 8
  %7 = getelementptr inbounds i8, ptr %5, i64 8
  %8 = load ptr, ptr %7, align 8
  %.not8.i = icmp eq ptr %6, %8
  br i1 %.not8.i, label %_ZNK6opencc8TextDict15SerializeToFileEP8_IO_FILE.exit, label %.lr.ph.i

.lr.ph.i:                                         ; preds = %2, %.lr.ph.i
  %.sroa.05.09.i = phi ptr [ %15, %.lr.ph.i ], [ %6, %2 ]
  %9 = load ptr, ptr %.sroa.05.09.i, align 8
  %10 = load ptr, ptr %9, align 8
  %11 = getelementptr inbounds i8, ptr %10, i64 48
  %12 = load ptr, ptr %11, align 8
  call void %12(ptr dead_on_unwind nonnull writable sret(%"class.std::__cxx11::basic_string") align 8 %3, ptr noundef nonnull align 8 dereferenceable(8) %9)
  %13 = call noundef ptr @_ZNKSt7__cxx1112basic_stringIcSt11char_traitsIcESaIcEE5c_strEv(ptr noundef nonnull align 8 dereferenceable(32) %3) #20
  %14 = call i32 (ptr, ptr, ...) @fprintf(ptr noundef %1, ptr noundef nonnull @.str.3, ptr noundef %13) #20
  call void @_ZNSt7__cxx1112basic_stringIcSt11char_traitsIcESaIcEED1Ev(ptr noundef nonnull align 8 dereferenceable(32) %3) #20
  %15 = getelementptr inbounds i8, ptr %.sroa.05.09.i, i64 8
  %.not.i = icmp eq ptr %15, %8
  br i1 %.not.i, label %_ZNK6opencc8TextDict15SerializeToFileEP8_IO_FILE.exit, label %.lr.ph.i

_ZNK6opencc8TextDict15SerializeToFileEP8_IO_FILE.exit: ; preds = %.lr.ph.i, %2
  call void @llvm.lifetime.end.p0(i64 32, ptr nonnull %3)
  ret void
}